ARM GAS  C:\Users\Alex\AppData\Local\Temp\ccPMvNNr.s 			page 1


   1              		.syntax unified
   2              		.cpu cortex-m3
   3              		.fpu softvfp
   4              		.eabi_attribute 20, 1
   5              		.eabi_attribute 21, 1
   6              		.eabi_attribute 23, 3
   7              		.eabi_attribute 24, 1
   8              		.eabi_attribute 25, 1
   9              		.eabi_attribute 26, 1
  10              		.eabi_attribute 30, 1
  11              		.eabi_attribute 34, 1
  12              		.eabi_attribute 18, 4
  13              		.thumb
  14              		.file	"main.c"
  15              		.text
  16              	.Ltext0:
  17              		.cfi_sections	.debug_frame
  18              		.section	.text.main,"ax",%progbits
  19              		.align	2
  20              		.global	main
  21              		.thumb
  22              		.thumb_func
  23              		.type	main, %function
  24              	main:
  25              	.LFB63:
  26              		.file 1 "main.c"
   1:main.c        **** /**
   2:main.c        **** * @mainpage ZumoBot Project
   3:main.c        **** * @brief    You can make your own ZumoBot with various sensors.
   4:main.c        **** * @details  <br><br>
   5:main.c        ****     <p>
   6:main.c        ****     <B>General</B><br>
   7:main.c        ****     You will use Pololu Zumo Shields for your robot project with CY8CKIT-059(PSoC 5LP) from Cypress
   8:main.c        ****     library has basic methods of various sensors and communications so that you can make what you w
   9:main.c        ****     <br><br>
  10:main.c        ****     </p>
  11:main.c        ****     
  12:main.c        ****     <p>
  13:main.c        ****     <B>Sensors</B><br>
  14:main.c        ****     &nbsp;Included: <br>
  15:main.c        ****         &nbsp;&nbsp;&nbsp;&nbsp;LSM303D: Accelerometer & Magnetometer<br>
  16:main.c        ****         &nbsp;&nbsp;&nbsp;&nbsp;L3GD20H: Gyroscope<br>
  17:main.c        ****         &nbsp;&nbsp;&nbsp;&nbsp;Reflectance sensor<br>
  18:main.c        ****         &nbsp;&nbsp;&nbsp;&nbsp;Motors
  19:main.c        ****     &nbsp;Wii nunchuck<br>
  20:main.c        ****     &nbsp;TSOP-2236: IR Receiver<br>
  21:main.c        ****     &nbsp;HC-SR04: Ultrasonic sensor<br>
  22:main.c        ****     &nbsp;APDS-9301: Ambient light sensor<br>
  23:main.c        ****     &nbsp;IR LED <br><br><br>
  24:main.c        ****     </p>
  25:main.c        ****     
  26:main.c        ****     <p>
  27:main.c        ****     <B>Communication</B><br>
  28:main.c        ****     I2C, UART, Serial<br>
  29:main.c        ****     </p>
  30:main.c        **** */
  31:main.c        **** 
ARM GAS  C:\Users\Alex\AppData\Local\Temp\ccPMvNNr.s 			page 2


  32:main.c        **** #include <project.h>
  33:main.c        **** #include <stdio.h>
  34:main.c        **** #include "Motor.h"
  35:main.c        **** #include "Ultra.h"
  36:main.c        **** #include "Nunchuk.h"
  37:main.c        **** #include "Reflectance.h"
  38:main.c        **** #include "I2C_made.h"
  39:main.c        **** #include "Gyro.h"
  40:main.c        **** #include "Accel_magnet.h"
  41:main.c        **** #include "IR.h"
  42:main.c        **** #include "Ambient.h"
  43:main.c        **** #include "Beep.h"
  44:main.c        **** 
  45:main.c        **** int rread(void);
  46:main.c        **** 
  47:main.c        **** /**
  48:main.c        ****  * @file    main.c
  49:main.c        ****  * @brief   
  50:main.c        ****  * @details  ** You should enable global interrupt for operating properly. **<br>&nbsp;&nbsp;&nbsp;
  51:main.c        **** */
  52:main.c        **** 
  53:main.c        **** 
  54:main.c        **** /*//battery level//
  55:main.c        **** int main()
  56:main.c        **** {
  57:main.c        ****     CyGlobalIntEnable; 
  58:main.c        ****     UART_1_Start();
  59:main.c        ****     ADC_Battery_Start();        
  60:main.c        ****     int16 adcresult =0;
  61:main.c        ****     float volts = 0.0;
  62:main.c        **** 
  63:main.c        ****     printf("\nBoot\n");
  64:main.c        **** 
  65:main.c        ****     //BatteryLed_Write(1); // Switch led on 
  66:main.c        ****     BatteryLed_Write(0); // Switch led off 
  67:main.c        ****     //uint8 button;
  68:main.c        ****     //button = SW1_Read(); // read SW1 on pSoC board
  69:main.c        **** 
  70:main.c        ****     for(;;)
  71:main.c        ****     {
  72:main.c        ****         
  73:main.c        ****         ADC_Battery_StartConvert();
  74:main.c        ****         if(ADC_Battery_IsEndConversion(ADC_Battery_WAIT_FOR_RESULT)) {   // wait for get ADC conver
  75:main.c        ****             adcresult = ADC_Battery_GetResult16();
  76:main.c        ****             volts = (ADC_Battery_CountsTo_Volts(adcresult))/(2.0/3.0);                  // convert 
  77:main.c        ****         
  78:main.c        ****             // If you want to print value
  79:main.c        ****             printf("%d %f\r\n",adcresult, volts);
  80:main.c        ****         }
  81:main.c        ****         CyDelay(500);
  82:main.c        ****         
  83:main.c        ****     }
  84:main.c        ****  }   
  85:main.c        **** //*/
  86:main.c        **** 
  87:main.c        **** 
  88:main.c        **** /*//ultra sonic sensor//
ARM GAS  C:\Users\Alex\AppData\Local\Temp\ccPMvNNr.s 			page 3


  89:main.c        **** int main()
  90:main.c        **** {
  91:main.c        ****     CyGlobalIntEnable; 
  92:main.c        ****     UART_1_Start();
  93:main.c        ****     Ultra_Start();                          // Ultra Sonic Start function
  94:main.c        ****     while(1) {
  95:main.c        ****         //If you want to print out the value  
  96:main.c        ****         printf("distance = %5.0f\r\n", Ultra_GetDistance());
  97:main.c        ****         CyDelay(1000);
  98:main.c        ****     }
  99:main.c        **** }   
 100:main.c        **** //*/
 101:main.c        **** 
 102:main.c        **** 
 103:main.c        **** /*//nunchuk//
 104:main.c        **** int main()
 105:main.c        **** {
 106:main.c        ****     CyGlobalIntEnable; 
 107:main.c        ****     UART_1_Start();
 108:main.c        ****   
 109:main.c        ****     nunchuk_start();
 110:main.c        ****     nunchuk_init();
 111:main.c        ****     
 112:main.c        ****     for(;;)
 113:main.c        ****     {    
 114:main.c        ****         nunchuk_read();
 115:main.c        ****     }
 116:main.c        **** }   
 117:main.c        **** //*/
 118:main.c        **** 
 119:main.c        **** 
 120:main.c        **** /*//IR receiver//
 121:main.c        **** int main()
 122:main.c        **** {
 123:main.c        ****     CyGlobalIntEnable; 
 124:main.c        ****     UART_1_Start();
 125:main.c        ****     
 126:main.c        ****     unsigned int IR_val; 
 127:main.c        ****     
 128:main.c        ****     for(;;)
 129:main.c        ****     {
 130:main.c        ****        IR_val = get_IR();
 131:main.c        ****        printf("%x\r\n\n",IR_val);
 132:main.c        ****     }    
 133:main.c        ****  }   
 134:main.c        **** //*/
 135:main.c        **** 
 136:main.c        **** 
 137:main.c        **** /*//Ambient light sensor//
 138:main.c        **** int main()
 139:main.c        **** {
 140:main.c        ****     CyGlobalIntEnable; 
 141:main.c        ****     UART_1_Start();
 142:main.c        ****     
 143:main.c        ****     I2C_Start();
 144:main.c        ****     
 145:main.c        ****     I2C_write(0x29,0x80,0x00);          // set to power down
ARM GAS  C:\Users\Alex\AppData\Local\Temp\ccPMvNNr.s 			page 4


 146:main.c        ****     I2C_write(0x29,0x80,0x03);          // set to power on
 147:main.c        ****     
 148:main.c        ****     for(;;)
 149:main.c        ****     {    
 150:main.c        ****         uint8 Data0Low,Data0High,Data1Low,Data1High;
 151:main.c        ****         Data0Low = I2C_read(0x29,CH0_L);
 152:main.c        ****         Data0High = I2C_read(0x29,CH0_H);
 153:main.c        ****         Data1Low = I2C_read(0x29,CH1_L);
 154:main.c        ****         Data1High = I2C_read(0x29,CH1_H);
 155:main.c        ****         
 156:main.c        ****         uint8 CH0, CH1;
 157:main.c        ****         CH0 = convert_raw(Data0Low,Data0High);      // combine Data0
 158:main.c        ****         CH1 = convert_raw(Data1Low,Data1High);      // combine Data1
 159:main.c        **** 
 160:main.c        ****         double Ch0 = CH0;
 161:main.c        ****         double Ch1 = CH1;
 162:main.c        ****         
 163:main.c        ****         double data = 0;
 164:main.c        ****         data = getLux(Ch0,Ch1);
 165:main.c        ****         
 166:main.c        ****         // If you want to print out data
 167:main.c        ****         //printf("%lf\r\n",data);    
 168:main.c        ****     }    
 169:main.c        ****  }   
 170:main.c        **** //*/
 171:main.c        **** 
 172:main.c        **** 
 173:main.c        **** /*//accelerometer//
 174:main.c        **** int main()
 175:main.c        **** {
 176:main.c        ****     CyGlobalIntEnable; 
 177:main.c        ****     UART_1_Start();
 178:main.c        ****   
 179:main.c        ****     I2C_Start();
 180:main.c        ****   
 181:main.c        ****     uint8 X_L_A, X_H_A, Y_L_A, Y_H_A, Z_L_A, Z_H_A;
 182:main.c        ****     int16 X_AXIS_A, Y_AXIS_A, Z_AXIS_A;
 183:main.c        ****     
 184:main.c        ****     I2C_write(ACCEL_MAG_ADDR, ACCEL_CTRL1_REG, 0x37);           // set accelerometer & magnetometer
 185:main.c        ****     I2C_write(ACCEL_MAG_ADDR, ACCEL_CTRL7_REG, 0x22);
 186:main.c        ****     
 187:main.c        ****     
 188:main.c        ****     for(;;)
 189:main.c        ****     {
 190:main.c        ****         //print out accelerometer output
 191:main.c        ****         X_L_A = I2C_read(ACCEL_MAG_ADDR, OUT_X_L_A);
 192:main.c        ****         X_H_A = I2C_read(ACCEL_MAG_ADDR, OUT_X_H_A);
 193:main.c        ****         X_AXIS_A = convert_raw(X_L_A, X_H_A);
 194:main.c        ****         
 195:main.c        ****         Y_L_A = I2C_read(ACCEL_MAG_ADDR, OUT_Y_L_A);
 196:main.c        ****         Y_H_A = I2C_read(ACCEL_MAG_ADDR, OUT_Y_H_A);
 197:main.c        ****         Y_AXIS_A = convert_raw(Y_L_A, Y_H_A);
 198:main.c        ****         
 199:main.c        ****         Z_L_A = I2C_read(ACCEL_MAG_ADDR, OUT_Z_L_A);
 200:main.c        ****         Z_H_A = I2C_read(ACCEL_MAG_ADDR, OUT_Z_H_A);
 201:main.c        ****         Z_AXIS_A = convert_raw(Z_L_A, Z_H_A);
 202:main.c        ****         
ARM GAS  C:\Users\Alex\AppData\Local\Temp\ccPMvNNr.s 			page 5


 203:main.c        ****         printf("ACCEL: %d %d %d %d %d %d \r\n", X_L_A, X_H_A, Y_L_A, Y_H_A, Z_L_A, Z_H_A);
 204:main.c        ****         value_convert_accel(X_AXIS_A, Y_AXIS_A, Z_AXIS_A);
 205:main.c        ****         printf("\n");
 206:main.c        ****         
 207:main.c        ****         CyDelay(50);
 208:main.c        ****     }
 209:main.c        **** }   
 210:main.c        **** //*/
 211:main.c        **** 
 212:main.c        **** 
 213:main.c        **** //reflectance//
 214:main.c        **** int main()
 215:main.c        **** {
  27              		.loc 1 215 0
  28              		.cfi_startproc
  29              		@ args = 0, pretend = 0, frame = 16
  30              		@ frame_needed = 0, uses_anonymous_args = 0
  31 0000 10B5     		push	{r4, lr}
  32              		.cfi_def_cfa_offset 8
  33              		.cfi_offset 4, -8
  34              		.cfi_offset 14, -4
  35 0002 86B0     		sub	sp, sp, #24
  36              		.cfi_def_cfa_offset 32
 216:main.c        ****     struct sensors_ ref;
 217:main.c        ****     struct sensors_ dig;
 218:main.c        ****     CyGlobalIntEnable; 
  37              		.loc 1 218 0
  38              	@ 218 "main.c" 1
  39 0004 62B6     		CPSIE   i
  40              	@ 0 "" 2
 219:main.c        ****     UART_1_Start();
  41              		.loc 1 219 0
  42              		.thumb
  43 0006 FFF7FEFF 		bl	UART_1_Start
  44              	.LVL0:
 220:main.c        ****   
 221:main.c        ****     sensor_isr_StartEx(sensor_isr_handler);
  45              		.loc 1 221 0
  46 000a 3848     		ldr	r0, .L10
  47 000c FFF7FEFF 		bl	sensor_isr_StartEx
  48              	.LVL1:
 222:main.c        ****     
 223:main.c        ****     reflectance_start();
  49              		.loc 1 223 0
  50 0010 FFF7FEFF 		bl	reflectance_start
  51              	.LVL2:
 224:main.c        **** 
 225:main.c        ****     IR_led_Write(1);
  52              		.loc 1 225 0
  53 0014 0120     		movs	r0, #1
  54 0016 FFF7FEFF 		bl	IR_led_Write
  55              	.LVL3:
  56              	.L8:
 226:main.c        ****     
 227:main.c        ****       
 228:main.c        ****     
 229:main.c        ****     for(;;)
ARM GAS  C:\Users\Alex\AppData\Local\Temp\ccPMvNNr.s 			page 6


 230:main.c        ****     {
 231:main.c        ****         reflectance_read(&ref);
  57              		.loc 1 231 0
  58 001a 04A8     		add	r0, sp, #16
  59 001c FFF7FEFF 		bl	reflectance_read
  60              	.LVL4:
 232:main.c        ****         printf("%d %d %d %d \r\n", ref.l3, ref.l1, ref.r1, ref.r3);       //print out each period o
  61              		.loc 1 232 0
  62 0020 BDF81010 		ldrh	r1, [sp, #16]
  63 0024 BDF81220 		ldrh	r2, [sp, #18]
  64 0028 BDF81430 		ldrh	r3, [sp, #20]
  65 002c BDF81600 		ldrh	r0, [sp, #22]
  66 0030 2F4C     		ldr	r4, .L10+4
  67 0032 0090     		str	r0, [sp]
  68 0034 2046     		mov	r0, r4
  69 0036 FFF7FEFF 		bl	printf
  70              	.LVL5:
 233:main.c        ****         reflectance_digital(&dig);      //print out 0 or 1 according to results of reflectance peri
  71              		.loc 1 233 0
  72 003a 02A8     		add	r0, sp, #8
  73 003c FFF7FEFF 		bl	reflectance_digital
  74              	.LVL6:
 234:main.c        ****         printf("%d %d %d %d \r\n", dig.l3, dig.l1, dig.r1, dig.r3);        //print out 0 or 1 accor
  75              		.loc 1 234 0
  76 0040 BDF80810 		ldrh	r1, [sp, #8]
  77 0044 BDF80A20 		ldrh	r2, [sp, #10]
  78 0048 BDF80C30 		ldrh	r3, [sp, #12]
  79 004c BDF80E00 		ldrh	r0, [sp, #14]
  80 0050 0090     		str	r0, [sp]
  81 0052 2046     		mov	r0, r4
  82 0054 FFF7FEFF 		bl	printf
  83              	.LVL7:
 235:main.c        ****         
 236:main.c        ****     
 237:main.c        ****     motor_start();
  84              		.loc 1 237 0
  85 0058 FFF7FEFF 		bl	motor_start
  86              	.LVL8:
 238:main.c        ****     
 239:main.c        ****         
 240:main.c        ****     if(dig.r1 == 0 && dig.l1 == 0)
  87              		.loc 1 240 0
  88 005c BDF80C30 		ldrh	r3, [sp, #12]
  89 0060 3BB9     		cbnz	r3, .L2
  90              		.loc 1 240 0 is_stmt 0 discriminator 1
  91 0062 BDF80A20 		ldrh	r2, [sp, #10]
  92 0066 22B9     		cbnz	r2, .L2
 241:main.c        ****     {
 242:main.c        ****         motor_forward(150,1);
  93              		.loc 1 242 0 is_stmt 1
  94 0068 9620     		movs	r0, #150
  95 006a 0121     		movs	r1, #1
  96 006c FFF7FEFF 		bl	motor_forward
  97              	.LVL9:
  98 0070 37E0     		b	.L3
  99              	.L2:
 243:main.c        ****     }
ARM GAS  C:\Users\Alex\AppData\Local\Temp\ccPMvNNr.s 			page 7


 244:main.c        ****     else if(dig.r1 == 1 && dig.l1 == 0 )
 100              		.loc 1 244 0
 101 0072 012B     		cmp	r3, #1
 102 0074 08D1     		bne	.L4
 103              		.loc 1 244 0 is_stmt 0 discriminator 1
 104 0076 BDF80A20 		ldrh	r2, [sp, #10]
 105 007a 2AB9     		cbnz	r2, .L4
 245:main.c        ****     {
 246:main.c        ****         motor_turn(0,180,1);
 106              		.loc 1 246 0 is_stmt 1
 107 007c 0020     		movs	r0, #0
 108 007e B421     		movs	r1, #180
 109 0080 0122     		movs	r2, #1
 110 0082 FFF7FEFF 		bl	motor_turn
 111              	.LVL10:
 112 0086 2CE0     		b	.L3
 113              	.L4:
 247:main.c        ****     }    
 248:main.c        ****     else if(dig.r1 == 0 && dig.l1 == 1)
 114              		.loc 1 248 0
 115 0088 43B9     		cbnz	r3, .L5
 116              		.loc 1 248 0 is_stmt 0 discriminator 1
 117 008a BDF80A20 		ldrh	r2, [sp, #10]
 118 008e 012A     		cmp	r2, #1
 119 0090 04D1     		bne	.L5
 249:main.c        ****     {
 250:main.c        ****         motor_turn(180,0,1);
 120              		.loc 1 250 0 is_stmt 1
 121 0092 B420     		movs	r0, #180
 122 0094 0021     		movs	r1, #0
 123 0096 FFF7FEFF 		bl	motor_turn
 124              	.LVL11:
 125 009a 22E0     		b	.L3
 126              	.L5:
 251:main.c        ****     }
 252:main.c        ****     else if(dig.l3 == 1 && dig.l1 == 1 && dig.r1 == 1 && dig.r3 == 0)
 127              		.loc 1 252 0
 128 009c BDF80820 		ldrh	r2, [sp, #8]
 129 00a0 012A     		cmp	r2, #1
 130 00a2 0CD1     		bne	.L6
 131              		.loc 1 252 0 is_stmt 0 discriminator 1
 132 00a4 BDF80A10 		ldrh	r1, [sp, #10]
 133 00a8 0129     		cmp	r1, #1
 134 00aa 08D1     		bne	.L6
 135              		.loc 1 252 0 discriminator 2
 136 00ac 012B     		cmp	r3, #1
 137 00ae 06D1     		bne	.L6
 138              		.loc 1 252 0 discriminator 3
 139 00b0 BDF80E10 		ldrh	r1, [sp, #14]
 140 00b4 19B9     		cbnz	r1, .L6
 253:main.c        ****     {
 254:main.c        ****         motor_turn(255,0,1);
 141              		.loc 1 254 0 is_stmt 1
 142 00b6 FF20     		movs	r0, #255
 143 00b8 FFF7FEFF 		bl	motor_turn
 144              	.LVL12:
 145 00bc 11E0     		b	.L3
ARM GAS  C:\Users\Alex\AppData\Local\Temp\ccPMvNNr.s 			page 8


 146              	.L6:
 255:main.c        ****     }
 256:main.c        ****     else if(dig.l3 == 0 && dig.l1 == 1 && dig.r1 == 1 && dig.r3 == 1)
 147              		.loc 1 256 0
 148 00be 72B9     		cbnz	r2, .L7
 149              		.loc 1 256 0 is_stmt 0 discriminator 1
 150 00c0 BDF80A20 		ldrh	r2, [sp, #10]
 151 00c4 012A     		cmp	r2, #1
 152 00c6 0AD1     		bne	.L7
 153              		.loc 1 256 0 discriminator 2
 154 00c8 012B     		cmp	r3, #1
 155 00ca 08D1     		bne	.L7
 156              		.loc 1 256 0 discriminator 3
 157 00cc BDF80E30 		ldrh	r3, [sp, #14]
 158 00d0 012B     		cmp	r3, #1
 159 00d2 04D1     		bne	.L7
 257:main.c        ****     {
 258:main.c        ****         motor_turn(0,255,1);
 160              		.loc 1 258 0 is_stmt 1
 161 00d4 0020     		movs	r0, #0
 162 00d6 FF21     		movs	r1, #255
 163 00d8 FFF7FEFF 		bl	motor_turn
 164              	.LVL13:
 165 00dc 01E0     		b	.L3
 166              	.L7:
 259:main.c        ****     }
 260:main.c        ****     
 261:main.c        ****     
 262:main.c        ****     else
 263:main.c        ****     {
 264:main.c        ****         motor_stop();
 167              		.loc 1 264 0
 168 00de FFF7FEFF 		bl	motor_stop
 169              	.LVL14:
 170              	.L3:
 265:main.c        ****     }
 266:main.c        ****     
 267:main.c        ****         CyDelayUs(500);
 171              		.loc 1 267 0
 172 00e2 4FF4FA70 		mov	r0, #500
 173 00e6 FFF7FEFF 		bl	CyDelayUs
 174              	.LVL15:
 268:main.c        ****     }
 175              		.loc 1 268 0
 176 00ea 96E7     		b	.L8
 177              	.L11:
 178              		.align	2
 179              	.L10:
 180 00ec 00000000 		.word	sensor_isr_handler
 181 00f0 00000000 		.word	.LC0
 182              		.cfi_endproc
 183              	.LFE63:
 184              		.size	main, .-main
 185              		.section	.text._write,"ax",%progbits
 186              		.align	2
 187              		.global	_write
 188              		.thumb
ARM GAS  C:\Users\Alex\AppData\Local\Temp\ccPMvNNr.s 			page 9


 189              		.thumb_func
 190              		.type	_write, %function
 191              	_write:
 192              	.LFB64:
 269:main.c        **** 
 270:main.c        **** 
 271:main.c        ****     
 272:main.c        **** }   
 273:main.c        **** //*/
 274:main.c        **** 
 275:main.c        ****  /*//motor////*/
 276:main.c        **** /*int main()
 277:main.c        **** {
 278:main.c        ****     CyGlobalIntEnable; 
 279:main.c        ****     UART_1_Start();
 280:main.c        **** 
 281:main.c        ****     motor_start();              // motor start
 282:main.c        **** 
 283:main.c        ****     motor_forward(0,3000);    // moving forward
 284:main.c        ****     motor_turn(104,100,5200);     // turn
 285:main.c        ****     //motor_forward(100,5300);//
 286:main.c        ****     motor_turn(200,0,400); 
 287:main.c        ****     //motor_forward(100,4000);//
 288:main.c        ****     motor_turn(103,100,4000);     // turn
 289:main.c        ****     //motor_forward(100,5300);//
 290:main.c        ****     motor_turn(200,0,400);
 291:main.c        ****     //motor_backward(100,2000); //   // movinb backward
 292:main.c        ****     motor_turn(103,100,4800);
 293:main.c        ****     motor_turn(200,0,700);
 294:main.c        ****     motor_turn(100,125,4000);
 295:main.c        ****     motor_stop();               // motor stop
 296:main.c        ****     
 297:main.c        ****     for(;;)
 298:main.c        ****     {
 299:main.c        **** 
 300:main.c        ****     }
 301:main.c        **** }
 302:main.c        **** */
 303:main.c        ****     
 304:main.c        **** 
 305:main.c        **** /*//gyroscope//
 306:main.c        **** int main()
 307:main.c        **** {
 308:main.c        ****     CyGlobalIntEnable; 
 309:main.c        ****     UART_1_Start();
 310:main.c        ****   
 311:main.c        ****     I2C_Start();
 312:main.c        ****   
 313:main.c        ****     uint8 X_L_G, X_H_G, Y_L_G, Y_H_G, Z_L_G, Z_H_G;
 314:main.c        ****     int16 X_AXIS_G, Y_AXIS_G, Z_AXIS_G;
 315:main.c        ****     
 316:main.c        ****     I2C_write(GYRO_ADDR, GYRO_CTRL1_REG, 0x0F);             // set gyroscope into active mode
 317:main.c        ****     I2C_write(GYRO_ADDR, GYRO_CTRL4_REG, 0x30);             // set full scale selection to 2000dps 
 318:main.c        ****     
 319:main.c        ****     for(;;)
 320:main.c        ****     {
 321:main.c        ****         //print out gyroscope output
ARM GAS  C:\Users\Alex\AppData\Local\Temp\ccPMvNNr.s 			page 10


 322:main.c        ****         X_L_G = I2C_read(GYRO_ADDR, OUT_X_AXIS_L);
 323:main.c        ****         X_H_G = I2C_read(GYRO_ADDR, OUT_X_AXIS_H);
 324:main.c        ****         X_AXIS_G = convert_raw(X_H_G, X_L_G);
 325:main.c        ****         
 326:main.c        ****         
 327:main.c        ****         Y_L_G = I2C_read(GYRO_ADDR, OUT_Y_AXIS_L);
 328:main.c        ****         Y_H_G = I2C_read(GYRO_ADDR, OUT_Y_AXIS_H);
 329:main.c        ****         Y_AXIS_G = convert_raw(Y_H_G, Y_L_G);
 330:main.c        ****         
 331:main.c        ****         
 332:main.c        ****         Z_L_G = I2C_read(GYRO_ADDR, OUT_Z_AXIS_L);
 333:main.c        ****         Z_H_G = I2C_read(GYRO_ADDR, OUT_Z_AXIS_H);
 334:main.c        ****         Z_AXIS_G = convert_raw(Z_H_G, Z_L_G);
 335:main.c        ****      
 336:main.c        ****         // If you want to print value
 337:main.c        ****         printf("%d %d %d \r\n", X_AXIS_G, Y_AXIS_G, Z_AXIS_G);
 338:main.c        ****         CyDelay(50);
 339:main.c        ****     }
 340:main.c        **** }   
 341:main.c        **** //*/
 342:main.c        **** 
 343:main.c        **** 
 344:main.c        **** /*//magnetometer//
 345:main.c        **** int main()
 346:main.c        **** {
 347:main.c        ****     CyGlobalIntEnable; 
 348:main.c        ****     UART_1_Start();
 349:main.c        ****   
 350:main.c        ****     I2C_Start();
 351:main.c        ****    
 352:main.c        ****     uint8 X_L_M, X_H_M, Y_L_M, Y_H_M, Z_L_M, Z_H_M;
 353:main.c        ****     int16 X_AXIS, Y_AXIS, Z_AXIS;
 354:main.c        ****     
 355:main.c        ****     I2C_write(GYRO_ADDR, GYRO_CTRL1_REG, 0x0F);             // set gyroscope into active mode
 356:main.c        ****     I2C_write(GYRO_ADDR, GYRO_CTRL4_REG, 0x30);             // set full scale selection to 2000dps
 357:main.c        ****     I2C_write(ACCEL_MAG_ADDR, ACCEL_CTRL1_REG, 0x37);           // set accelerometer & magnetometer
 358:main.c        ****     I2C_write(ACCEL_MAG_ADDR, ACCEL_CTRL7_REG, 0x22);
 359:main.c        ****     
 360:main.c        ****     
 361:main.c        ****     for(;;)
 362:main.c        ****     {
 363:main.c        ****         X_L_M = I2C_read(ACCEL_MAG_ADDR, OUT_X_L_M);
 364:main.c        ****         X_H_M = I2C_read(ACCEL_MAG_ADDR, OUT_X_H_M);
 365:main.c        ****         X_AXIS = convert_raw(X_L_M, X_H_M);
 366:main.c        ****         
 367:main.c        ****         Y_L_M = I2C_read(ACCEL_MAG_ADDR, OUT_Y_L_M);
 368:main.c        ****         Y_H_M = I2C_read(ACCEL_MAG_ADDR, OUT_Y_H_M);
 369:main.c        ****         Y_AXIS = convert_raw(Y_L_M, Y_H_M);
 370:main.c        ****         
 371:main.c        ****         Z_L_M = I2C_read(ACCEL_MAG_ADDR, OUT_Z_L_M);
 372:main.c        ****         Z_H_M = I2C_read(ACCEL_MAG_ADDR, OUT_Z_H_M);
 373:main.c        ****         Z_AXIS = convert_raw(Z_L_M, Z_H_M);
 374:main.c        ****         
 375:main.c        ****         heading(X_AXIS, Y_AXIS);
 376:main.c        ****         printf("MAGNET: %d %d %d %d %d %d \r\n", X_L_M, X_H_M, Y_L_M, Y_H_M, Z_L_M, Z_H_M);
 377:main.c        ****         printf("%d %d %d \r\n", X_AXIS,Y_AXIS, Z_AXIS);
 378:main.c        ****         CyDelay(50);      
ARM GAS  C:\Users\Alex\AppData\Local\Temp\ccPMvNNr.s 			page 11


 379:main.c        ****     }
 380:main.c        **** }   
 381:main.c        **** //*/
 382:main.c        **** 
 383:main.c        **** 
 384:main.c        **** #if 0
 385:main.c        **** int rread(void)
 386:main.c        **** {
 387:main.c        ****     SC0_SetDriveMode(PIN_DM_STRONG);
 388:main.c        ****     SC0_Write(1);
 389:main.c        ****     CyDelayUs(10);
 390:main.c        ****     SC0_SetDriveMode(PIN_DM_DIG_HIZ);
 391:main.c        ****     Timer_1_Start();
 392:main.c        ****     uint16_t start = Timer_1_ReadCounter();
 393:main.c        ****     uint16_t end = 0;
 394:main.c        ****     while(!(Timer_1_ReadStatusRegister() & Timer_1_STATUS_TC)) {
 395:main.c        ****         if(SC0_Read() == 0 && end == 0) {
 396:main.c        ****             end = Timer_1_ReadCounter();
 397:main.c        ****         }
 398:main.c        ****     }
 399:main.c        ****     Timer_1_Stop();
 400:main.c        ****     
 401:main.c        ****     return (start - end);
 402:main.c        **** }
 403:main.c        **** #endif
 404:main.c        **** 
 405:main.c        **** /* Don't remove the functions below */
 406:main.c        **** int _write(int file, char *ptr, int len)
 407:main.c        **** {
 193              		.loc 1 407 0
 194              		.cfi_startproc
 195              		@ args = 0, pretend = 0, frame = 0
 196              		@ frame_needed = 0, uses_anonymous_args = 0
 197              	.LVL16:
 198 0000 F8B5     		push	{r3, r4, r5, r6, r7, lr}
 199              		.cfi_def_cfa_offset 24
 200              		.cfi_offset 3, -24
 201              		.cfi_offset 4, -20
 202              		.cfi_offset 5, -16
 203              		.cfi_offset 6, -12
 204              		.cfi_offset 7, -8
 205              		.cfi_offset 14, -4
 206 0002 0C46     		mov	r4, r1
 207 0004 1746     		mov	r7, r2
 208              	.LVL17:
 408:main.c        ****     (void)file; /* Parameter is not used, suppress unused argument warning */
 409:main.c        **** 	int n;
 410:main.c        **** 	for(n = 0; n < len; n++) {
 209              		.loc 1 410 0
 210 0006 0025     		movs	r5, #0
 211 0008 0BE0     		b	.L13
 212              	.LVL18:
 213              	.L15:
 411:main.c        ****         if(*ptr == '\n') UART_1_PutChar('\r');
 214              		.loc 1 411 0
 215 000a 2378     		ldrb	r3, [r4]	@ zero_extendqisi2
 216 000c 0A2B     		cmp	r3, #10
ARM GAS  C:\Users\Alex\AppData\Local\Temp\ccPMvNNr.s 			page 12


 217 000e 02D1     		bne	.L14
 218              		.loc 1 411 0 is_stmt 0 discriminator 1
 219 0010 0D20     		movs	r0, #13
 220 0012 FFF7FEFF 		bl	UART_1_PutChar
 221              	.LVL19:
 222              	.L14:
 412:main.c        **** 		UART_1_PutChar(*ptr++);
 223              		.loc 1 412 0 is_stmt 1 discriminator 2
 224 0016 661C     		adds	r6, r4, #1
 225              	.LVL20:
 226 0018 2078     		ldrb	r0, [r4]	@ zero_extendqisi2
 227 001a FFF7FEFF 		bl	UART_1_PutChar
 228              	.LVL21:
 410:main.c        ****         if(*ptr == '\n') UART_1_PutChar('\r');
 229              		.loc 1 410 0 discriminator 2
 230 001e 0135     		adds	r5, r5, #1
 231              	.LVL22:
 232              		.loc 1 412 0 discriminator 2
 233 0020 3446     		mov	r4, r6
 234              	.LVL23:
 235              	.L13:
 410:main.c        ****         if(*ptr == '\n') UART_1_PutChar('\r');
 236              		.loc 1 410 0 discriminator 1
 237 0022 BD42     		cmp	r5, r7
 238 0024 F1DB     		blt	.L15
 413:main.c        **** 	}
 414:main.c        **** 	return len;
 415:main.c        **** }
 239              		.loc 1 415 0
 240 0026 3846     		mov	r0, r7
 241 0028 F8BD     		pop	{r3, r4, r5, r6, r7, pc}
 242              		.cfi_endproc
 243              	.LFE64:
 244              		.size	_write, .-_write
 245 002a 00BF     		.section	.text._read,"ax",%progbits
 246              		.align	2
 247              		.global	_read
 248              		.thumb
 249              		.thumb_func
 250              		.type	_read, %function
 251              	_read:
 252              	.LFB65:
 416:main.c        **** 
 417:main.c        **** int _read (int file, char *ptr, int count)
 418:main.c        **** {
 253              		.loc 1 418 0
 254              		.cfi_startproc
 255              		@ args = 0, pretend = 0, frame = 0
 256              		@ frame_needed = 0, uses_anonymous_args = 0
 257              	.LVL24:
 258 0000 F8B5     		push	{r3, r4, r5, r6, r7, lr}
 259              		.cfi_def_cfa_offset 24
 260              		.cfi_offset 3, -24
 261              		.cfi_offset 4, -20
 262              		.cfi_offset 5, -16
 263              		.cfi_offset 6, -12
 264              		.cfi_offset 7, -8
ARM GAS  C:\Users\Alex\AppData\Local\Temp\ccPMvNNr.s 			page 13


 265              		.cfi_offset 14, -4
 266 0002 0F46     		mov	r7, r1
 267 0004 1446     		mov	r4, r2
 268              	.LVL25:
 419:main.c        ****     int chs = 0;
 269              		.loc 1 419 0
 270 0006 0026     		movs	r6, #0
 420:main.c        ****     char ch;
 421:main.c        ****  
 422:main.c        ****     (void)file; /* Parameter is not used, suppress unused argument warning */
 423:main.c        ****     while(count > 0) {
 271              		.loc 1 423 0
 272 0008 12E0     		b	.L19
 273              	.LVL26:
 274              	.L22:
 424:main.c        ****         ch = UART_1_GetChar();
 275              		.loc 1 424 0
 276 000a FFF7FEFF 		bl	UART_1_GetChar
 277              	.LVL27:
 425:main.c        ****         if(ch != 0) {
 278              		.loc 1 425 0
 279 000e 0546     		mov	r5, r0
 280 0010 70B1     		cbz	r0, .L19
 426:main.c        ****             UART_1_PutChar(ch);
 281              		.loc 1 426 0
 282 0012 FFF7FEFF 		bl	UART_1_PutChar
 283              	.LVL28:
 427:main.c        ****             chs++;
 284              		.loc 1 427 0
 285 0016 0136     		adds	r6, r6, #1
 286              	.LVL29:
 428:main.c        ****             if(ch == '\r') {
 287              		.loc 1 428 0
 288 0018 0D2D     		cmp	r5, #13
 289 001a 03D1     		bne	.L20
 290              	.LVL30:
 429:main.c        ****                 ch = '\n';
 430:main.c        ****                 UART_1_PutChar(ch);
 291              		.loc 1 430 0
 292 001c 0A20     		movs	r0, #10
 293 001e FFF7FEFF 		bl	UART_1_PutChar
 294              	.LVL31:
 429:main.c        ****                 ch = '\n';
 295              		.loc 1 429 0
 296 0022 0A25     		movs	r5, #10
 297              	.LVL32:
 298              	.L20:
 431:main.c        ****             }
 432:main.c        ****             *ptr++ = ch;
 299              		.loc 1 432 0
 300 0024 7B1C     		adds	r3, r7, #1
 301              	.LVL33:
 302 0026 3D70     		strb	r5, [r7]
 433:main.c        ****             count--;
 303              		.loc 1 433 0
 304 0028 013C     		subs	r4, r4, #1
 305              	.LVL34:
ARM GAS  C:\Users\Alex\AppData\Local\Temp\ccPMvNNr.s 			page 14


 434:main.c        ****             if(ch == '\n') break;
 306              		.loc 1 434 0
 307 002a 0A2D     		cmp	r5, #10
 308 002c 02D0     		beq	.L21
 432:main.c        ****             count--;
 309              		.loc 1 432 0
 310 002e 1F46     		mov	r7, r3
 311              	.LVL35:
 312              	.L19:
 423:main.c        ****         ch = UART_1_GetChar();
 313              		.loc 1 423 0
 314 0030 002C     		cmp	r4, #0
 315 0032 EADC     		bgt	.L22
 316              	.LVL36:
 317              	.L21:
 435:main.c        ****         }
 436:main.c        ****     }
 437:main.c        ****     return chs;
 438:main.c        **** }
 318              		.loc 1 438 0
 319 0034 3046     		mov	r0, r6
 320 0036 F8BD     		pop	{r3, r4, r5, r6, r7, pc}
 321              		.cfi_endproc
 322              	.LFE65:
 323              		.size	_read, .-_read
 324              		.section	.rodata.str1.4,"aMS",%progbits,1
 325              		.align	2
 326              	.LC0:
 327 0000 25642025 		.ascii	"%d %d %d %d \015\012\000"
 327      64202564 
 327      20256420 
 327      0D0A00
 328 000f 00       		.text
 329              	.Letext0:
 330              		.file 2 "c:\\program files (x86)\\cypress\\psoc creator\\4.0\\psoc creator\\import\\gnu\\arm\\4.9.
 331              		.file 3 "c:\\program files (x86)\\cypress\\psoc creator\\4.0\\psoc creator\\import\\gnu\\arm\\4.9.
 332              		.file 4 "Generated_Source\\PSoC5/cytypes.h"
 333              		.file 5 ".\\ZumoLibrary/Reflectance.h"
 334              		.file 6 "Generated_Source\\PSoC5/UART_1.h"
 335              		.file 7 "Generated_Source\\PSoC5/sensor_isr.h"
 336              		.file 8 "Generated_Source\\PSoC5/IR_led.h"
 337              		.file 9 ".\\ZumoLibrary/Motor.h"
 338              		.file 10 "Generated_Source\\PSoC5/CyLib.h"
 339              		.file 11 "Generated_Source\\PSoC5/core_cm3.h"
 340              		.file 12 "c:\\program files (x86)\\cypress\\psoc creator\\4.0\\psoc creator\\import\\gnu\\arm\\4.9